#include <math.h>
#include <stdio.h>
#include <stdlib.h>
#include <string.h>

main()
{
    int n,k;
    double a[100],b[100],c[100],x1,x2,p,m,q;
    scanf("%d\n",&n);
    for(k=1;k<=n;k++)
    {
        scanf("%lf %lf %lf",&a[k],&b[k],&c[k]);
    }
    for(k=1;k<=n;k++)
    {
        p=b[k]*b[k]-4*a[k]*c[k];
        if(p==0)
        {
            if(b[k]==0)
        {
            m=0;
            printf("x1=x2=%.5f\n",m);

        }
        else
        {
            m=-b[k]/(2*a[k]);
            printf("x1=x2=%.5f\n",m);
        }
        }
    if(p>0)
    {
        x1=(-b[k]+sqrt(p))/(2*a[k]);
        x2=(-b[k]-sqrt(p))/(2*a[k]);
        printf("x1=%.5f;x2=%.5f\n",x1,x2);
    }
    if(p<0)
    {
        if(b[k]==0)
        {
            x1=sqrt(-p)/(2*a[k]);
            printf("x1=0.00000+%.5fi;x2=0.00000-%.5fi\n",x1,x1);
        }
        else
        {
            m=-b[k]/(2*a[k]);
            q=sqrt(-p)/(2*a[k]);
            printf("x1=%.5f+%.5fi;x2=%.5f-%.5fi\n",m,q,m,q);
        }
    }
    }
}
